#include <math.h>
#include <stdio.h>
#include <stdlib.h>
#include <string.h>
#include <iostream>
using namespace std;

/*
 * ways.cpp
 *
 *  Created on: 2013-11-24
 *      Author: Mac
 */


int factor(int a, int f)
{
	if(a == f)
		return 1;
	if (a < f)
		return 0;
	if(a%f == 0)
		return factor(a, f+1) + factor(a/f, f);
	else return factor(a, f+1);
}

int main()
{
	int x, a;
	cin >> x;
	while(x > 0)
	{
		cin >> a;
		cout << factor(a, 2) << endl;
		x --;
	}
}
